target datalayout = "e-m:e-p270:32:32-p271:32:32-p272:64:64-i64:64-i128:128-f80:128-n8:16:32:64-S128"
target triple = "x86_64-pc-linux-gnu"

%struct._psqlSettings = type { ptr, i32, ptr, i8, ptr, ptr, %struct.printQueryOpt, ptr, ptr, ptr, i8, i8, i32, i32, ptr, ptr, i8, [4 x ptr], i8, i32, ptr, i8, i32, ptr, ptr, i64, i64, i8, ptr, ptr, ptr, i8, i8, i8, i8, i8, i8, i8, i32, i32, i32, i32, i32, i32, i32, i32, ptr, ptr, ptr, i32, i8, i32 }
%struct.printQueryOpt = type { %struct.printTableOpt, ptr, ptr, ptr, i8, ptr, i32 }
%struct.printTableOpt = type { i32, i16, i32, i32, i16, i16, i32, i8, i8, i8, i8, i64, ptr, %struct.separator, %struct.separator, [2 x i8], i8, ptr, i32, i32, i32, i32, i32, i32 }
%struct.separator = type { ptr, i8 }

@pset = external global %struct._psqlSettings, align 8

; Function Attrs: nounwind uwtable
define internal void @parse_identifier(ptr noundef %0, ptr noundef %1, ptr noundef %2, ptr noundef %3, ptr noundef %4) #0 {
  %6 = alloca ptr, align 8
  %7 = alloca ptr, align 8
  %8 = alloca ptr, align 8
  %9 = alloca ptr, align 8
  %10 = alloca ptr, align 8
  %11 = alloca i64, align 8
  %12 = alloca i8, align 1
  %13 = alloca ptr, align 8
  %14 = alloca ptr, align 8
  %15 = alloca ptr, align 8
  %16 = alloca i8, align 1
  %17 = alloca i8, align 1
  %18 = alloca i32, align 4
  %19 = alloca i32, align 4
  %20 = alloca i32, align 4
  store ptr %0, ptr %6, align 8
  store ptr %1, ptr %7, align 8
  store ptr %2, ptr %8, align 8
  store ptr %3, ptr %9, align 8
  store ptr %4, ptr %10, align 8
  call void @llvm.lifetime.start.p0(i64 8, ptr %11) #8
  %21 = load ptr, ptr %6, align 8
  %22 = call i64 @strlen(ptr noundef %21) #9
  %23 = add i64 %22, 1
  store i64 %23, ptr %11, align 8
  call void @llvm.lifetime.start.p0(i64 1, ptr %12) #8
  %24 = load i32, ptr getelementptr inbounds nuw (%struct._psqlSettings, ptr @pset, i32 0, i32 1), align 8
  %25 = call i32 @pg_encoding_max_length(i32 noundef %24)
  %26 = icmp eq i32 %25, 1
  %27 = zext i1 %26 to i8
  store i8 %27, ptr %12, align 1
  call void @llvm.lifetime.start.p0(i64 8, ptr %13) #8
  call void @llvm.lifetime.start.p0(i64 8, ptr %14) #8
  call void @llvm.lifetime.start.p0(i64 8, ptr %15) #8
  call void @llvm.lifetime.start.p0(i64 1, ptr %16) #8
  store ptr null, ptr %13, align 8
  %28 = load i64, ptr %11, align 8
  %29 = call ptr @pg_malloc(i64 noundef %28)
  store ptr %29, ptr %14, align 8
  %30 = load ptr, ptr %10, align 8
  store i8 0, ptr %30, align 1
  %31 = load ptr, ptr %9, align 8
  store i8 0, ptr %31, align 1
  %32 = load ptr, ptr %14, align 8
  store ptr %32, ptr %15, align 8
  store i8 0, ptr %16, align 1
  br label %33

33:                                               ; preds = %165, %5
  %34 = load ptr, ptr %6, align 8
  %35 = load i8, ptr %34, align 1
  %36 = icmp ne i8 %35, 0
  br i1 %36, label %37, label %166

37:                                               ; preds = %33
  call void @llvm.lifetime.start.p0(i64 1, ptr %17) #8
  %38 = load ptr, ptr %6, align 8
  %39 = getelementptr inbounds nuw i8, ptr %38, i32 1
  store ptr %39, ptr %6, align 8
  %40 = load i8, ptr %38, align 1
  store i8 %40, ptr %17, align 1
  %41 = load i8, ptr %17, align 1
  %42 = zext i8 %41 to i32
  %43 = icmp eq i32 %42, 34
  br i1 %43, label %44, label %64

44:                                               ; preds = %37
  %45 = load i8, ptr %16, align 1, !range !6, !noundef !7
  %46 = trunc i8 %45 to i1
  br i1 %46, label %47, label %57

47:                                               ; preds = %44
  %48 = load ptr, ptr %6, align 8
  %49 = load i8, ptr %48, align 1
  %50 = sext i8 %49 to i32
  %51 = icmp eq i32 %50, 34
  br i1 %51, label %52, label %57

52:                                               ; preds = %47
  %53 = load ptr, ptr %15, align 8
  %54 = getelementptr inbounds nuw i8, ptr %53, i32 1
  store ptr %54, ptr %15, align 8
  store i8 34, ptr %53, align 1
  %55 = load ptr, ptr %6, align 8
  %56 = getelementptr inbounds nuw i8, ptr %55, i32 1
  store ptr %56, ptr %6, align 8
  br label %63

57:                                               ; preds = %47, %44
  %58 = load i8, ptr %16, align 1, !range !6, !noundef !7
  %59 = trunc i8 %58 to i1
  %60 = xor i1 %59, true
  %61 = zext i1 %60 to i8
  store i8 %61, ptr %16, align 1
  %62 = load ptr, ptr %10, align 8
  store i8 1, ptr %62, align 1
  br label %63

63:                                               ; preds = %57, %52
  br label %165

64:                                               ; preds = %37
  %65 = load i8, ptr %17, align 1
  %66 = zext i8 %65 to i32
  %67 = icmp eq i32 %66, 46
  br i1 %67, label %68, label %84

68:                                               ; preds = %64
  %69 = load i8, ptr %16, align 1, !range !6, !noundef !7
  %70 = trunc i8 %69 to i1
  br i1 %70, label %84, label %71

71:                                               ; preds = %68
  %72 = load ptr, ptr %15, align 8
  store i8 0, ptr %72, align 1
  %73 = load ptr, ptr %13, align 8
  call void @free(ptr noundef %73) #8
  %74 = load ptr, ptr %14, align 8
  store ptr %74, ptr %13, align 8
  %75 = load i64, ptr %11, align 8
  %76 = call ptr @pg_malloc(i64 noundef %75)
  store ptr %76, ptr %14, align 8
  %77 = load ptr, ptr %14, align 8
  store ptr %77, ptr %15, align 8
  %78 = load ptr, ptr %10, align 8
  %79 = load i8, ptr %78, align 1, !range !6, !noundef !7
  %80 = trunc i8 %79 to i1
  %81 = load ptr, ptr %9, align 8
  %82 = zext i1 %80 to i8
  store i8 %82, ptr %81, align 1
  %83 = load ptr, ptr %10, align 8
  store i8 0, ptr %83, align 1
  br label %164

84:                                               ; preds = %68, %64
  %85 = load i8, ptr %12, align 1, !range !6, !noundef !7
  %86 = trunc i8 %85 to i1
  br i1 %86, label %111, label %87

87:                                               ; preds = %84
  %88 = load i8, ptr %17, align 1
  %89 = zext i8 %88 to i32
  %90 = and i32 %89, 128
  %91 = icmp ne i32 %90, 0
  br i1 %91, label %92, label %111

92:                                               ; preds = %87
  call void @llvm.lifetime.start.p0(i64 4, ptr %18) #8
  %93 = load ptr, ptr %6, align 8
  %94 = getelementptr inbounds i8, ptr %93, i64 -1
  %95 = load i32, ptr getelementptr inbounds nuw (%struct._psqlSettings, ptr @pset, i32 0, i32 1), align 8
  %96 = call i32 @PQmblenBounded(ptr noundef %94, i32 noundef %95)
  store i32 %96, ptr %18, align 4
  %97 = load i8, ptr %17, align 1
  %98 = load ptr, ptr %15, align 8
  %99 = getelementptr inbounds nuw i8, ptr %98, i32 1
  store ptr %99, ptr %15, align 8
  store i8 %97, ptr %98, align 1
  br label %100

100:                                              ; preds = %104, %92
  %101 = load i32, ptr %18, align 4
  %102 = add i32 %101, -1
  store i32 %102, ptr %18, align 4
  %103 = icmp sgt i32 %102, 0
  br i1 %103, label %104, label %110

104:                                              ; preds = %100
  %105 = load ptr, ptr %6, align 8
  %106 = getelementptr inbounds nuw i8, ptr %105, i32 1
  store ptr %106, ptr %6, align 8
  %107 = load i8, ptr %105, align 1
  %108 = load ptr, ptr %15, align 8
  %109 = getelementptr inbounds nuw i8, ptr %108, i32 1
  store ptr %109, ptr %15, align 8
  store i8 %107, ptr %108, align 1
  br label %100, !llvm.loop !32

110:                                              ; preds = %100
  call void @llvm.lifetime.end.p0(i64 4, ptr %18) #8
  br label %163

111:                                              ; preds = %87, %84
  %112 = load i8, ptr %16, align 1, !range !6, !noundef !7
  %113 = trunc i8 %112 to i1
  br i1 %113, label %159, label %114

114:                                              ; preds = %111
  %115 = load i8, ptr %17, align 1
  %116 = zext i8 %115 to i32
  %117 = icmp sge i32 %116, 65
  br i1 %117, label %118, label %127

118:                                              ; preds = %114
  %119 = load i8, ptr %17, align 1
  %120 = zext i8 %119 to i32
  %121 = icmp sle i32 %120, 90
  br i1 %121, label %122, label %127

122:                                              ; preds = %118
  %123 = load i8, ptr %17, align 1
  %124 = zext i8 %123 to i32
  %125 = add i32 %124, 32
  %126 = trunc i32 %125 to i8
  store i8 %126, ptr %17, align 1
  br label %158

127:                                              ; preds = %118, %114
  %128 = load i8, ptr %12, align 1, !range !6, !noundef !7
  %129 = trunc i8 %128 to i1
  br i1 %129, label %130, label %157

130:                                              ; preds = %127
  %131 = load i8, ptr %17, align 1
  %132 = zext i8 %131 to i32
  %133 = and i32 %132, 128
  %134 = icmp ne i32 %133, 0
  br i1 %134, label %135, label %157

135:                                              ; preds = %130
  %136 = call ptr @__ctype_b_loc() #10
  %137 = load ptr, ptr %136, align 8
  %138 = load i8, ptr %17, align 1
  %139 = zext i8 %138 to i32
  %140 = sext i32 %139 to i64
  %141 = getelementptr inbounds i16, ptr %137, i64 %140
  %142 = load i16, ptr %141, align 2
  %143 = zext i16 %142 to i32
  %144 = and i32 %143, 256
  %145 = icmp ne i32 %144, 0
  br i1 %145, label %146, label %157

146:                                              ; preds = %135
  call void @llvm.lifetime.start.p0(i64 4, ptr %19) #8
  %147 = call ptr @__ctype_tolower_loc() #10
  %148 = load ptr, ptr %147, align 8
  %149 = load i8, ptr %17, align 1
  %150 = zext i8 %149 to i32
  %151 = sext i32 %150 to i64
  %152 = getelementptr inbounds i32, ptr %148, i64 %151
  %153 = load i32, ptr %152, align 4
  store i32 %153, ptr %19, align 4
  %154 = load i32, ptr %19, align 4
  store i32 %154, ptr %20, align 4
  call void @llvm.lifetime.end.p0(i64 4, ptr %19) #8
  %155 = load i32, ptr %20, align 4
  %156 = trunc i32 %155 to i8
  store i8 %156, ptr %17, align 1
  br label %157

157:                                              ; preds = %146, %135, %130, %127
  br label %158

158:                                              ; preds = %157, %122
  br label %159

159:                                              ; preds = %158, %111
  %160 = load i8, ptr %17, align 1
  %161 = load ptr, ptr %15, align 8
  %162 = getelementptr inbounds nuw i8, ptr %161, i32 1
  store ptr %162, ptr %15, align 8
  store i8 %160, ptr %161, align 1
  br label %163

163:                                              ; preds = %159, %110
  br label %164

164:                                              ; preds = %163, %71
  br label %165

165:                                              ; preds = %164, %63
  call void @llvm.lifetime.end.p0(i64 1, ptr %17) #8
  br label %33, !llvm.loop !33

166:                                              ; preds = %33
  %167 = load ptr, ptr %15, align 8
  store i8 0, ptr %167, align 1
  %168 = load ptr, ptr %13, align 8
  %169 = load ptr, ptr %7, align 8
  store ptr %168, ptr %169, align 8
  %170 = load ptr, ptr %14, align 8
  %171 = load ptr, ptr %8, align 8
  store ptr %170, ptr %171, align 8
  call void @llvm.lifetime.end.p0(i64 1, ptr %16) #8
  call void @llvm.lifetime.end.p0(i64 8, ptr %15) #8
  call void @llvm.lifetime.end.p0(i64 8, ptr %14) #8
  call void @llvm.lifetime.end.p0(i64 8, ptr %13) #8
  call void @llvm.lifetime.end.p0(i64 1, ptr %12) #8
  call void @llvm.lifetime.end.p0(i64 8, ptr %11) #8
  ret void
}