; Function Attrs: nounwind uwtable
define internal fastcc void @parse_identifier(ptr noundef %0, ptr noundef writeonly captures(none) %1, ptr noundef writeonly captures(none) %2, ptr noundef writeonly captures(none) initializes((0, 1)) %3, ptr noundef captures(none) initializes((0, 1)) %4) unnamed_addr #0 {
  %6 = tail call i64 @strlen(ptr noundef nonnull dereferenceable(1) %0) #13
  %7 = add i64 %6, 1
  %8 = load i32, ptr getelementptr inbounds nuw (i8, ptr @pset, i64 8), align 8
  %9 = tail call i32 @pg_encoding_max_length(i32 noundef %8) #11
  %10 = tail call ptr @pg_malloc(i64 noundef %7) #11
  store i8 0, ptr %4, align 1
  store i8 0, ptr %3, align 1
  %11 = load i8, ptr %0, align 1
  %.not79 = icmp eq i8 %11, 0
  br i1 %.not79, label %._crit_edge, label %.lr.ph85

.lr.ph85:                                         ; preds = %5
  %.fr96 = freeze i32 %9
  %.not97 = icmp eq i32 %.fr96, 1
  br i1 %.not97, label %.lr.ph85.split.us.split, label %.lr.ph85.split

.lr.ph85.split.us.split:                          ; preds = %.lr.ph85, %50
  %12 = phi i8 [ %51, %50 ], [ %11, %.lr.ph85 ]
  %.084.us = phi ptr [ %.1.us, %50 ], [ %0, %.lr.ph85 ]
  %.05083.us = phi ptr [ %.151.us, %50 ], [ null, %.lr.ph85 ]
  %.05482.us = phi i8 [ %.155.us, %50 ], [ 0, %.lr.ph85 ]
  %.05681.us = phi ptr [ %.157.us, %50 ], [ %10, %.lr.ph85 ]
  %.05980.us = phi ptr [ %.160.us, %50 ], [ %10, %.lr.ph85 ]
  %13 = getelementptr inbounds nuw i8, ptr %.084.us, i64 1
  switch i8 %12, label %29 [
    i8 34, label %19
    i8 46, label %14
  ]

14:                                               ; preds = %.lr.ph85.split.us.split
  %15 = trunc nuw i8 %.05482.us to i1
  br i1 %15, label %.thread73.us, label %16

16:                                               ; preds = %14
  store i8 0, ptr %.05681.us, align 1
  tail call void @free(ptr noundef %.05083.us) #11
  %17 = tail call ptr @pg_malloc(i64 noundef %7) #11
  %18 = load i8, ptr %4, align 1, !range !13, !noundef !31
  store i8 %18, ptr %3, align 1
  store i8 0, ptr %4, align 1
  br label %50

19:                                               ; preds = %.lr.ph85.split.us.split
  %20 = trunc nuw i8 %.05482.us to i1
  br i1 %20, label %21, label %24

21:                                               ; preds = %19
  %22 = load i8, ptr %13, align 1
  %23 = icmp eq i8 %22, 34
  br i1 %23, label %26, label %24

24:                                               ; preds = %21, %19
  %25 = xor i8 %.05482.us, 1
  store i8 1, ptr %4, align 1
  br label %50

26:                                               ; preds = %21
  %27 = getelementptr inbounds nuw i8, ptr %.05681.us, i64 1
  store i8 34, ptr %.05681.us, align 1
  %28 = getelementptr inbounds nuw i8, ptr %.084.us, i64 2
  br label %50

29:                                               ; preds = %.lr.ph85.split.us.split
  %.not64.us = icmp sgt i8 %12, -1
  %30 = trunc nuw i8 %.05482.us to i1
  br i1 %30, label %.thread73.us, label %31

31:                                               ; preds = %29
  %32 = add i8 %12, -65
  %or.cond.us = icmp ult i8 %32, 26
  br i1 %or.cond.us, label %47, label %33

33:                                               ; preds = %31
  br i1 %.not64.us, label %.thread73.us, label %34

34:                                               ; preds = %33
  %35 = tail call ptr @__ctype_b_loc() #12
  %36 = load ptr, ptr %35, align 8
  %37 = zext i8 %12 to i64
  %38 = getelementptr inbounds nuw i16, ptr %36, i64 %37
  %39 = load i16, ptr %38, align 2
  %40 = and i16 %39, 256
  %.not66.us = icmp eq i16 %40, 0
  br i1 %.not66.us, label %.thread73.us, label %41

41:                                               ; preds = %34
  %42 = tail call ptr @__ctype_tolower_loc() #12
  %43 = load ptr, ptr %42, align 8
  %44 = getelementptr inbounds nuw i32, ptr %43, i64 %37
  %45 = load i32, ptr %44, align 4
  %46 = trunc i32 %45 to i8
  br label %.thread73.us

47:                                               ; preds = %31
  %48 = or disjoint i8 %12, 32
  br label %.thread73.us

.thread73.us:                                     ; preds = %47, %41, %34, %33, %29, %14
  %.053.us = phi i8 [ %12, %29 ], [ %48, %47 ], [ %46, %41 ], [ %12, %34 ], [ %12, %33 ], [ 46, %14 ]
  %49 = getelementptr inbounds nuw i8, ptr %.05681.us, i64 1
  store i8 %.053.us, ptr %.05681.us, align 1
  br label %50

50:                                               ; preds = %.thread73.us, %26, %24, %16
  %.160.us = phi ptr [ %.05980.us, %26 ], [ %.05980.us, %24 ], [ %.05980.us, %.thread73.us ], [ %17, %16 ]
  %.157.us = phi ptr [ %27, %26 ], [ %.05681.us, %24 ], [ %49, %.thread73.us ], [ %17, %16 ]
  %.155.us = phi i8 [ 1, %26 ], [ %25, %24 ], [ %.05482.us, %.thread73.us ], [ 0, %16 ]
  %.151.us = phi ptr [ %.05083.us, %26 ], [ %.05083.us, %24 ], [ %.05083.us, %.thread73.us ], [ %.05980.us, %16 ]
  %.1.us = phi ptr [ %28, %26 ], [ %13, %24 ], [ %13, %.thread73.us ], [ %13, %16 ]
  %51 = load i8, ptr %.1.us, align 1
  %.not.us = icmp eq i8 %51, 0
  br i1 %.not.us, label %._crit_edge, label %.lr.ph85.split.us.split, !llvm.loop !39

.lr.ph85.split:                                   ; preds = %.lr.ph85, %.loopexit
  %52 = phi i8 [ %85, %.loopexit ], [ %11, %.lr.ph85 ]
  %.084 = phi ptr [ %.1, %.loopexit ], [ %0, %.lr.ph85 ]
  %.05083 = phi ptr [ %.151, %.loopexit ], [ null, %.lr.ph85 ]
  %.05482 = phi i8 [ %.155, %.loopexit ], [ 0, %.lr.ph85 ]
  %.05681 = phi ptr [ %.157, %.loopexit ], [ %10, %.lr.ph85 ]
  %.05980 = phi ptr [ %.160, %.loopexit ], [ %10, %.lr.ph85 ]
  %53 = getelementptr inbounds nuw i8, ptr %.084, i64 1
  switch i8 %52, label %69 [
    i8 34, label %54
    i8 46, label %64
  ]

54:                                               ; preds = %.lr.ph85.split
  %55 = trunc nuw i8 %.05482 to i1
  br i1 %55, label %56, label %62

56:                                               ; preds = %54
  %57 = load i8, ptr %53, align 1
  %58 = icmp eq i8 %57, 34
  br i1 %58, label %59, label %62

59:                                               ; preds = %56
  %60 = getelementptr inbounds nuw i8, ptr %.05681, i64 1
  store i8 34, ptr %.05681, align 1
  %61 = getelementptr inbounds nuw i8, ptr %.084, i64 2
  br label %.loopexit

62:                                               ; preds = %56, %54
  %63 = xor i8 %.05482, 1
  store i8 1, ptr %4, align 1
  br label %.loopexit

64:                                               ; preds = %.lr.ph85.split
  %65 = trunc nuw i8 %.05482 to i1
  br i1 %65, label %.thread73, label %66

66:                                               ; preds = %64
  store i8 0, ptr %.05681, align 1
  tail call void @free(ptr noundef %.05083) #11
  %67 = tail call ptr @pg_malloc(i64 noundef %7) #11
  %68 = load i8, ptr %4, align 1, !range !13, !noundef !31
  store i8 %68, ptr %3, align 1
  store i8 0, ptr %4, align 1
  br label %.loopexit

69:                                               ; preds = %.lr.ph85.split
  %.not64 = icmp sgt i8 %52, -1
  br i1 %.not64, label %80, label %70

70:                                               ; preds = %69
  %71 = load i32, ptr getelementptr inbounds nuw (i8, ptr @pset, i64 8), align 8
  %72 = tail call i32 @PQmblenBounded(ptr noundef nonnull %.084, i32 noundef %71) #11
  store i8 %52, ptr %.05681, align 1
  %.25875 = getelementptr inbounds nuw i8, ptr %.05681, i64 1
  %73 = add i32 %72, -1
  %74 = icmp sgt i32 %73, 0
  br i1 %74, label %.lr.ph, label %.loopexit

.lr.ph:                                           ; preds = %70, %.lr.ph
  %75 = phi i32 [ %78, %.lr.ph ], [ %73, %70 ]
  %.25877 = phi ptr [ %.258, %.lr.ph ], [ %.25875, %70 ]
  %.276 = phi ptr [ %76, %.lr.ph ], [ %53, %70 ]
  %76 = getelementptr inbounds nuw i8, ptr %.276, i64 1
  %77 = load i8, ptr %.276, align 1
  store i8 %77, ptr %.25877, align 1
  %.258 = getelementptr inbounds nuw i8, ptr %.25877, i64 1
  %78 = add nsw i32 %75, -1
  %79 = icmp samesign ugt i32 %75, 1
  br i1 %79, label %.lr.ph, label %.loopexit, !llvm.loop !40

80:                                               ; preds = %69
  %81 = trunc nuw i8 %.05482 to i1
  %82 = add nsw i8 %52, -91
  %or.cond = icmp ult i8 %82, -26
  %or.cond102.not = select i1 %81, i1 true, i1 %or.cond
  %83 = or disjoint i8 %52, 32
  %spec.select = select i1 %or.cond102.not, i8 %52, i8 %83
  br label %.thread73

.thread73:                                        ; preds = %80, %64
  %.053 = phi i8 [ 46, %64 ], [ %spec.select, %80 ]
  %84 = getelementptr inbounds nuw i8, ptr %.05681, i64 1
  store i8 %.053, ptr %.05681, align 1
  br label %.loopexit

.loopexit:                                        ; preds = %.lr.ph, %70, %66, %.thread73, %59, %62
  %.160 = phi ptr [ %.05980, %59 ], [ %.05980, %62 ], [ %.05980, %.thread73 ], [ %67, %66 ], [ %.05980, %70 ], [ %.05980, %.lr.ph ]
  %.157 = phi ptr [ %60, %59 ], [ %.05681, %62 ], [ %84, %.thread73 ], [ %67, %66 ], [ %.25875, %70 ], [ %.258, %.lr.ph ]
  %.155 = phi i8 [ 1, %59 ], [ %63, %62 ], [ %.05482, %.thread73 ], [ 0, %66 ], [ %.05482, %70 ], [ %.05482, %.lr.ph ]
  %.151 = phi ptr [ %.05083, %59 ], [ %.05083, %62 ], [ %.05083, %.thread73 ], [ %.05980, %66 ], [ %.05083, %70 ], [ %.05083, %.lr.ph ]
  %.1 = phi ptr [ %61, %59 ], [ %53, %62 ], [ %53, %.thread73 ], [ %53, %66 ], [ %53, %70 ], [ %76, %.lr.ph ]
  %85 = load i8, ptr %.1, align 1
  %.not = icmp eq i8 %85, 0
  br i1 %.not, label %._crit_edge, label %.lr.ph85.split, !llvm.loop !39

._crit_edge:                                      ; preds = %.loopexit, %50, %5
  %.059.lcssa = phi ptr [ %10, %5 ], [ %.160.us, %50 ], [ %.160, %.loopexit ]
  %.056.lcssa = phi ptr [ %10, %5 ], [ %.157.us, %50 ], [ %.157, %.loopexit ]
  %.050.lcssa = phi ptr [ null, %5 ], [ %.151.us, %50 ], [ %.151, %.loopexit ]
  store i8 0, ptr %.056.lcssa, align 1
  store ptr %.050.lcssa, ptr %1, align 8
  store ptr %.059.lcssa, ptr %2, align 8
  ret void
}